
/usr/local/lib/libqcld2.a(qlsd2.o):
0000000000000030 T __ZN5QLSD2C1EP7QObject
0000000000000000 T __ZN5QLSD2C2EP7QObject
                 U __ZN7QObjectC2EPS_
                 U __ZTV5QLSD2

/usr/local/lib/libqcld2.a(cldutil.o):
00000000000001e0 T __ZN4CLD210GetUniHitsEPKciiPNS_14ScoringContextEPNS_16ScoringHitBufferE
                 U __ZN4CLD210OctaHash40EPKci
                 U __ZN4CLD210QuadHashV2EPKci
0000000000000660 T __ZN4CLD211GetOctaHitsEPKciiPNS_14ScoringContextEPNS_16ScoringHitBufferE
0000000000000460 T __ZN4CLD211GetQuadHitsEPKciiPNS_14ScoringContextEPNS_16ScoringHitBufferE
00000000000000a0 T __ZN4CLD212GetLangScoreEjh
0000000000000a30 T __ZN4CLD212MakeLangProbENS_8LanguageEi
0000000000000bc0 S __ZN4CLD214OctaFPJustHashEyjiPjS0_
0000000000000ba0 S __ZN4CLD214QuadFPJustHashEjjiPjS0_
0000000000000b80 S __ZN4CLD214UTF8OneCharLenEPKc
0000000000000120 T __ZN4CLD215DoBigramScoreV3EPKNS_16CLD2TableSummaryEPKciPNS_4ToteE
0000000000000a70 S __ZN4CLD215LgProb2TblEntryEi
                 U __ZN4CLD215PerScriptNumberENS_8ULScriptENS_8LanguageE
0000000000000950 T __ZN4CLD216ReliabilityDeltaEiii
0000000000000b10 S __ZN4CLD217OctaHashV3Lookup4EPKNS_16CLD2TableSummaryEy
0000000000000000 T __ZN4CLD217ProcessProbV2ToteEjPNS_4ToteE
0000000000000aa0 S __ZN4CLD217QuadHashV3Lookup4EPKNS_16CLD2TableSummaryEj
00000000000009c0 T __ZN4CLD219ReliabilityExpectedEii
                 U __ZN4CLD229UTF8GenericPropertyBigOneByteEPKNS_19UTF8StateMachineObjEPPKhPi
                 U __ZN4CLD24Tote3AddEhi
0000000000000a90 S __ZN4CLD27LgProb3EPKhi
                 U __ZN4CLD28BiHashV2EPKci
                 U __ZN4CLD28PairHashEyy
00000000000002c0 T __ZN4CLD29GetBiHitsEPKciiPNS_14ScoringContextEPNS_16ScoringHitBufferE
0000000000001690 s __ZN4CLD2L11kUTF8LenTblE
0000000000000f10 s __ZN4CLD2L12kLgProbV2TblE
0000000000000c00 s __ZN4CLD2L15kAdvanceOneCharE
0000000000000f00 s __ZN4CLD2L19kLgProbV2TblBackmapE
0000000000000d00 s __ZN4CLD2L23kAdvanceOneCharButSpaceE
0000000000000e00 s __ZN4CLD2L25kAdvanceOneCharSpaceVowelE
00000000000009b0 t __ZN4CLD2L6minintEii
                 U ___stack_chk_fail
                 U ___stack_chk_guard

/usr/local/lib/libqcld2.a(cldutil_shared.o):
0000000000000540 T __ZN4CLD210OctaHash40EPKci
0000000000000150 T __ZN4CLD210QuadHashV2EPKci
00000000000001f0 T __ZN4CLD213OctaHash40MixEPKciy
0000000000000080 T __ZN4CLD213QuadHashV2MixEPKcij
00000000000006e0 S __ZN4CLD214UTF8OneCharLenEPKc
00000000000006d0 S __ZN4CLD216UNALIGNED_LOAD32EPKv
0000000000000580 T __ZN4CLD220OctaHash40underscoreEPKci
0000000000000190 T __ZN4CLD220QuadHashV2UnderscoreEPKci
0000000000000610 T __ZN4CLD25BiLenEPKc
00000000000005f0 T __ZN4CLD26UniLenEPKc
0000000000000680 T __ZN4CLD27OctaLenEPKc
0000000000000640 T __ZN4CLD27QuadLenEPKc
0000000000000000 T __ZN4CLD28BiHashV2EPKci
00000000000005e0 T __ZN4CLD28PairHashEyy
0000000000000700 s __ZN4CLD2L10kWordMask0E
0000000000000810 s __ZN4CLD2L11kUTF8LenTblE
0000000000000710 s __ZN4CLD2L23kAdvanceOneCharButSpaceE

/usr/local/lib/libqcld2.a(compact_lang_det.o):
0000000000000060 T __ZN4CLD214DetectLanguageEPKcibPb
                 U __ZN4CLD220SpanInterchangeValidEPKci
0000000000000110 T __ZN4CLD221DetectLanguageSummaryEPKcibPNS_8LanguageEPiS4_Pb
00000000000001b0 T __ZN4CLD221DetectLanguageSummaryEPKcibS1_iNS_8LanguageEPS2_PiS4_Pb
0000000000000000 T __ZN4CLD223DetectLanguageCheckUTF8EPKcibPbPi
                 U __ZN4CLD223DetectLanguageSummaryV2EPKcibPKNS_8CLDHintsEbiNS_8LanguageEPS5_PiPdPNSt3__16vectorINS_11ResultChunkENS9_9allocatorISB_EEEES7_Pb
00000000000004c0 T __ZN4CLD224ExtDetectLanguageSummaryEPKcibPKNS_8CLDHintsEiPNS_8LanguageEPiPdPNSt3__16vectorINS_11ResultChunkENS9_9allocatorISB_EEEES7_Pb
0000000000000250 T __ZN4CLD224ExtDetectLanguageSummaryEPKcibPNS_8LanguageEPiS4_Pb
0000000000000390 T __ZN4CLD224ExtDetectLanguageSummaryEPKcibS1_iNS_8LanguageEPS2_PiPdS4_Pb
00000000000002f0 T __ZN4CLD224ExtDetectLanguageSummaryEPKcibS1_iNS_8LanguageEPS2_PiS4_Pb
0000000000000410 T __ZN4CLD233ExtDetectLanguageSummaryCheckUTF8EPKcibPKNS_8CLDHintsEiPNS_8LanguageEPiPdPNSt3__16vectorINS_11ResultChunkENS9_9allocatorISB_EEEES7_PbS7_
                 U ___stack_chk_fail
                 U ___stack_chk_guard

/usr/local/lib/libqcld2.a(compact_lang_det_hint_code.o):
0000000000001474 s GCC_except_table11
00000000000014b0 s GCC_except_table20
00000000000014dc s GCC_except_table27
00000000000014fc s GCC_except_table28
                 U __Unwind_Resume
0000000000000810 T __ZN4CLD210FindBeforeEPKciiS1_
0000000000000660 T __ZN4CLD210FindTagEndEPKcii
0000000000000260 T __ZN4CLD211CountCommasERKNSt3__112basic_stringIcNS0_11char_traitsIcEENS0_9allocatorIcEEEE
0000000000000330 T __ZN4CLD211DoTLDLookupEPKcPKNS_9TLDLookupEi
0000000000000700 T __ZN4CLD212FindQuoteEndEPKcii
00000000000005e0 T __ZN4CLD212FindTagStartEPKcii
                 U __ZN4CLD212LanguageCodeENS_8LanguageE
0000000000000760 T __ZN4CLD213FindEqualSignEPKcii
0000000000000ce0 T __ZN4CLD213SetCLDTLDHintEPKcPNS_13CLDLangPriorsE
00000000000006b0 T __ZN4CLD214FindQuoteStartEPKcii
00000000000002c0 T __ZN4CLD215DoLangTagLookupEPKcPKNS_13LangTagLookupEi
0000000000001340 S __ZN4CLD215GetCLDPriorLangEs
0000000000000a50 T __ZN4CLD216CopyQuotedStringEPKcii
0000000000001390 S __ZN4CLD216UNALIGNED_LOAD32EPKv
0000000000000e60 T __ZN4CLD217DumpCLDLangPriorsEPKNS_13CLDLangPriorsE
0000000000001360 S __ZN4CLD217GetCLDPriorWeightEs
0000000000001370 S __ZN4CLD217SetCLDPriorWeightEiPs
0000000000000180 T __ZN4CLD217TrimCLDLangPriorsEiPNS_13CLDLangPriorsE
0000000000000d70 T __ZN4CLD218SetCLDEncodingHintENS_8EncodingEPNS_13CLDLangPriorsE
0000000000000ae0 T __ZN4CLD218SetCLDLangTagsHintERKNSt3__112basic_stringIcNS0_11char_traitsIcEENS0_9allocatorIcEEEEPNS_13CLDLangPriorsE
0000000000000e30 T __ZN4CLD218SetCLDLanguageHintENS_8LanguageEPNS_13CLDLangPriorsE
0000000000000960 T __ZN4CLD219CopyOneQuotedStringEPKcii
0000000000000f40 T __ZN4CLD219GetLangTagsFromHtmlEPKcii
00000000000003a0 T __ZN4CLD219TrimCLDLangTagsHintERKNSt3__112basic_stringIcNS0_11char_traitsIcEENS0_9allocatorIcEEEE
0000000000000010 T __ZN4CLD221MergeCLDLangPriorsMaxEsPNS_13CLDLangPriorsE
0000000000000c90 T __ZN4CLD221SetCLDContentLangHintEPKcPNS_13CLDLangPriorsE
0000000000000000 T __ZN4CLD222PackCLDPriorLangWeightENS_8LanguageEi
00000000000000d0 T __ZN4CLD223MergeCLDLangPriorsBoostEsPNS_13CLDLangPriorsE
0000000000001350 S __ZN4CLD26MaxIntEii
00000000000008c0 T __ZN4CLD29FindAfterEPKciiS1_
0000000000004dc0 s __ZN4CLD2L14kLangCodeRemapE
0000000000004cc0 s __ZN4CLD2L15kLangCodeActionE
0000000000004170 s __ZN4CLD2L16kCLDTLDHintTableE
0000000000001550 s __ZN4CLD2L22kCLDLangTagsHintTable1E
0000000000002950 s __ZN4CLD2L22kCLDLangTagsHintTable2E
                 U __ZNKSt3__112basic_stringIcNS_11char_traitsIcEENS_9allocatorIcEEE4findEcm
0000000000001460 S __ZNSt3__111char_traitsIcE2eqEcc
00000000000013b0 S __ZNSt3__111char_traitsIcE6lengthEPKc
                 U __ZNSt3__112basic_stringIcNS_11char_traitsIcEENS_9allocatorIcEEE5eraseEmm
                 U __ZNSt3__112basic_stringIcNS_11char_traitsIcEENS_9allocatorIcEEE6__initEPKcm
                 U __ZNSt3__112basic_stringIcNS_11char_traitsIcEENS_9allocatorIcEEE6appendEPKc
                 U __ZNSt3__112basic_stringIcNS_11char_traitsIcEENS_9allocatorIcEEE6appendEPKcm
                 U __ZNSt3__112basic_stringIcNS_11char_traitsIcEENS_9allocatorIcEEE6appendEmc
                 U __ZNSt3__112basic_stringIcNS_11char_traitsIcEENS_9allocatorIcEEE6resizeEmc
                 U __ZNSt3__112basic_stringIcNS_11char_traitsIcEENS_9allocatorIcEEED1Ev
00000000000013c0 S __ZNSt3__18__searchIPFbccEPKcS4_EET0_S5_S5_T1_S6_T_NS_26random_access_iterator_tagES8_
                 U __ZSt9terminatev
00000000000013a0 S ___clang_call_terminate
                 U ___cxa_begin_catch
                 U ___gxx_personality_v0
                 U ___stack_chk_fail
                 U ___stack_chk_guard
                 U _memcpy
                 U _sprintf
                 U _strchr
                 U _strcmp
                 U _strlen
                 U _strncpy

/usr/local/lib/libqcld2.a(compact_lang_det_impl.o):
0000000000003518 s GCC_except_table35
0000000000003544 s GCC_except_table50
0000000000003598 s GCC_except_table58
0000000000003664 s GCC_except_table84
                 U __Unwind_Resume
0000000000002dc0 S __ZN11StringPieceC1EPKci
0000000000003030 S __ZN11StringPieceC2EPKci
0000000000001eb0 T __ZN4CLD210ApplyHintsEPKcibPKNS_8CLDHintsEPNS_14ScoringContextE
0000000000003020 S __ZN4CLD210FlagFinishEi
0000000000002f00 S __ZN4CLD210LangBoosts4wrapEi
0000000000001560 T __ZN4CLD210PrintLangsEP7__sFILEPKNS_8LanguageEPKiS6_PKb
                 U __ZN4CLD210kQuad_obj2E
00000000000000c0 T __ZN4CLD210unloadDataEv
0000000000001d70 T __ZN4CLD211AddOneWhackENS_8LanguageES0_PNS_14ScoringContextE
0000000000003000 S __ZN4CLD211FlagRepeatsEi
0000000000003010 S __ZN4CLD211FlagSqueezeEi
0000000000000380 T __ZN4CLD212CountSpaces4EPKci
                 U __ZN4CLD212LanguageCodeENS_8LanguageE
                 U __ZN4CLD212LanguageNameENS_8LanguageE
                 U __ZN4CLD212MakeLangProbENS_8LanguageEi
0000000000001450 T __ZN4CLD212PrintTopLangENS_8LanguageE
0000000000000040 T __ZN4CLD212isDataLoadedEv
                 U __ZN4CLD213ScriptScanner21GetOneScriptSpanLowerEPNS_8LangSpanE
                 U __ZN4CLD213ScriptScannerC1EPKcib
                 U __ZN4CLD213ScriptScannerD1Ev
                 U __ZN4CLD213SetCLDTLDHintEPKcPNS_13CLDLangPriorsE
0000000000000050 T __ZN4CLD213isDataDynamicEv
                 U __ZN4CLD213kCloseSetSizeE
00000000000000f0 T __ZN4CLD214DemoteNotTop40EPNS_4ToteEt
0000000000001680 T __ZN4CLD214ExtractLangEtcEPNS_7DocToteEiPiPNS_8LanguageES2_PdS2_Pb
0000000000002ee0 S __ZN4CLD214FlagBestEffortEi
                 U __ZN4CLD214IsLatnLanguageENS_8LanguageE
                 U __ZN4CLD214IsOthrLanguageENS_8LanguageE
0000000000002f70 S __ZN4CLD214ScoringContext4initEv
                 U __ZN4CLD214kCjkCompat_objE
                 U __ZN4CLD214kDeltaOcta_objE
0000000000000160 T __ZN4CLD215BackscanToSpaceEPKci
00000000000019a0 T __ZN4CLD215CalcSummaryLangEPNS_7DocToteEiPKiPKNS_8LanguageES3_PS4_Pbbbi
0000000000002f30 S __ZN4CLD215GetCLDPriorLangEs
                 U __ZN4CLD215PerScriptNumberENS_8ULScriptENS_8LanguageE
                 U __ZN4CLD215UTF8GenericScanEPKNS_19UTF8StateMachineObjERK11StringPiecePi
                 U __ZN4CLD215kCjkDeltaBi_objE
                 U __ZN4CLD216LanguageCloseSetENS_8LanguageE
0000000000001000 T __ZN4CLD216MoveLang1ToLang2ENS_8LanguageES0_iiPNS_7DocToteEPNSt3__16vectorINS_11ResultChunkENS3_9allocatorIS5_EEEE
0000000000000060 T __ZN4CLD216loadDataFromFileEPKc
0000000000001e00 T __ZN4CLD217AddCloseLangWhackENS_8LanguageEPNS_14ScoringContextE
0000000000001d00 T __ZN4CLD217AddLangPriorBoostENS_8LanguageEjPNS_14ScoringContextE
                 U __ZN4CLD217DumpCLDLangPriorsEPKNS_13CLDLangPriorsE
0000000000002f40 S __ZN4CLD217GetCLDPriorWeightEs
0000000000002f10 S __ZN4CLD217InitCLDLangPriorsEPNS_13CLDLangPriorsE
                 U __ZN4CLD217TrimCLDLangPriorsEiPNS_13CLDLangPriorsE
                 U __ZN4CLD217kDistinctOcta_objE
00000000000021d0 T __ZN4CLD218FinishResultVectorEiiPNSt3__16vectorINS_11ResultChunkENS0_9allocatorIS2_EEEE
0000000000000210 T __ZN4CLD218ForwardscanToSpaceEPKci
                 U __ZN4CLD218GetHtmlEscapedTextERKNSt3__112basic_stringIcNS0_11char_traitsIcEENS0_9allocatorIcEEEE
0000000000001660 T __ZN4CLD218GetNormalizedScoreENS_8LanguageENS_8ULScriptEii
                 U __ZN4CLD218ScoreOneScriptSpanERKNS_8LangSpanEPNS_14ScoringContextEPNS_7DocToteEPNSt3__16vectorINS_11ResultChunkENS7_9allocatorIS9_EEEE
                 U __ZN4CLD218SetCLDEncodingHintENS_8EncodingEPNS_13CLDLangPriorsE
                 U __ZN4CLD218SetCLDLangTagsHintERKNSt3__112basic_stringIcNS0_11char_traitsIcEENS0_9allocatorIcEEEEPNS_13CLDLangPriorsE
                 U __ZN4CLD218SetCLDLanguageHintENS_8LanguageEPNS_13CLDLangPriorsE
                 U __ZN4CLD218kAvgDeltaOctaScoreE
00000000000007b0 T __ZN4CLD219CheapSqueezeInplaceEPcii
0000000000000280 T __ZN4CLD219CountPredictedBytesEPKciPiS2_
                 U __ZN4CLD219GetLangTagsFromHtmlEPKcii
                 U __ZN4CLD219GetPlainEscapedTextERKNSt3__112basic_stringIcNS0_11char_traitsIcEENS0_9allocatorIcEEEE
00000000000003f0 T __ZN4CLD220CheapRepWordsInplaceEPciPiS1_
0000000000002f20 S __ZN4CLD220GetCLDLangPriorCountEPNS_13CLDLangPriorsE
0000000000001360 T __ZN4CLD220PrintHtmlEscapedTextEP7__sFILEPKci
0000000000000000 T __ZN4CLD220SpanInterchangeValidEPKci
                 U __ZN4CLD220kDistinctBiTable_objE
                 U __ZN4CLD220kLanguageToPLangSizeE
0000000000001350 T __ZN4CLD221ApplyAllLanguageHintsEPNS_4ToteEiPh
0000000000002d80 T __ZN4CLD221DetectLanguageVersionEv
                 U __ZN4CLD221SetCLDContentLangHintEPKcPNS_13CLDLangPriorsE
00000000000011c0 T __ZN4CLD222RefineScoredClosePairsEPNS_7DocToteEPNSt3__16vectorINS_11ResultChunkENS2_9allocatorIS4_EEEEbb
0000000000000090 T __ZN4CLD222loadDataFromRawAddressEPKvj
0000000000000c20 T __ZN4CLD223CheapSqueezeTriggerTestEPKcii
0000000000002210 T __ZN4CLD223DetectLanguageSummaryV2EPKcibPKNS_8CLDHintsEbiNS_8LanguageEPS5_PiPdPNSt3__16vectorINS_11ResultChunkENS9_9allocatorISB_EEEES7_Pb
00000000000014c0 T __ZN4CLD223PrintTopLangSpeculativeENS_8LanguageE
0000000000000cd0 T __ZN4CLD223RemoveExtendedLanguagesEPNS_7DocToteE
                 U __ZN4CLD224cld_generated_CjkUni_objE
0000000000000ce0 T __ZN4CLD225RemoveUnreliableLanguagesEPNS_7DocToteEbb
00000000000009a0 T __ZN4CLD228CheapSqueezeInplaceOverwriteEPcii
00000000000005b0 T __ZN4CLD229CheapRepWordsInplaceOverwriteEPciPiS1_
                 U __ZN4CLD24ToteC1Ev
                 U __ZN4CLD24ToteD1Ev
0000000000001960 T __ZN4CLD26IsFIGSENS_8LanguageE
0000000000002e50 S __ZN4CLD27DocTote14SetReliabilityEii
                 U __ZN4CLD27DocTote4DumpEP7__sFILE
                 U __ZN4CLD27DocTote4FindEt
                 U __ZN4CLD27DocTote4SortEi
0000000000002e20 S __ZN4CLD27DocTote6SetKeyEii
0000000000002e40 S __ZN4CLD27DocTote8SetScoreEii
0000000000002e60 S __ZN4CLD27DocTote8SetValueEii
                 U __ZN4CLD27DocToteC1Ev
                 U __ZN4CLD27DocToteD1Ev
0000000000001980 T __ZN4CLD27IsEFIGSENS_8LanguageE
00000000000013e0 T __ZN4CLD29PrintLangEP7__sFILEPNS_4ToteENS_8LanguageEbS4_b
0000000000000100 T __ZN4CLD29PrintTextEP7__sFILENS_8LanguageERKNSt3__112basic_stringIcNS3_11char_traitsIcEENS3_9allocatorIcEEEE
                 U __ZN4CLD29kQuad_objE
0000000000004f50 d __ZN4CLD2L10prior_langE
00000000000036c8 s __ZN4CLD2L14kScoringtablesE
0000000000003aa0 s __ZN4CLD2L19kClosestAltLanguageE
0000000000003d40 s __ZN4CLD2L21utf8acceptinterchangeE
0000000000003688 s __ZN4CLD2L25utf8acceptinterchange_objE
00000000000069e0 b __ZN4CLD2L26temp_detectlanguageversionE
0000000000004e50 s __ZN4CLD2L26utf8acceptinterchange_fastE
0000000000004e40 s __ZN4CLD2L32utf8acceptinterchange_remap_baseE
0000000000004e44 s __ZN4CLD2L34utf8acceptinterchange_remap_stringE
0000000000000ff0 t __ZN4CLD2L6maxintEii
0000000000000200 t __ZN4CLD2L6minintEii
0000000000002e10 S __ZNK4CLD27DocTote11ReliabilityEi
0000000000002de0 S __ZNK4CLD27DocTote3KeyEi
0000000000002e70 S __ZNK4CLD27DocTote5ScoreEi
0000000000002e00 S __ZNK4CLD27DocTote5ValueEi
0000000000002dd0 S __ZNK4CLD27DocTote7MaxSizeEv
                 U __ZNKSt3__120__vector_base_commonILb1EE20__throw_length_errorEv
0000000000003370 S __ZNKSt3__16vectorIN4CLD211ResultChunkENS_9allocatorIS2_EEE14__annotate_newEm
0000000000003360 S __ZNKSt3__16vectorIN4CLD211ResultChunkENS_9allocatorIS2_EEE17__annotate_deleteEv
00000000000033e0 S __ZNKSt3__16vectorIN4CLD211ResultChunkENS_9allocatorIS2_EEE17__annotate_shrinkEm
0000000000003380 S __ZNKSt3__16vectorIN4CLD211ResultChunkENS_9allocatorIS2_EEE31__annotate_contiguous_containerEPKvS7_S7_S7_
00000000000032e0 S __ZNKSt3__16vectorIN4CLD211ResultChunkENS_9allocatorIS2_EEE8max_sizeEv
00000000000034d0 S __ZNKSt3__16vectorIiNS_9allocatorIiEEE14__annotate_newEm
00000000000034e0 S __ZNKSt3__16vectorIiNS_9allocatorIiEEE31__annotate_contiguous_containerEPKvS5_S5_S5_
00000000000034c0 S __ZNKSt3__16vectorIiNS_9allocatorIiEEE8max_sizeEv
                 U __ZNSt3__112basic_stringIcNS_11char_traitsIcEENS_9allocatorIcEEE6__initEPKcm
                 U __ZNSt3__112basic_stringIcNS_11char_traitsIcEENS_9allocatorIcEEED1Ev
0000000000003050 S __ZNSt3__113__vector_baseIiNS_9allocatorIiEEED2Ev
00000000000031e0 S __ZNSt3__114__split_bufferIN4CLD211ResultChunkERNS_9allocatorIS2_EEE18__construct_at_endEm
00000000000031d0 S __ZNSt3__114__split_bufferIN4CLD211ResultChunkERNS_9allocatorIS2_EEEC1EmmS5_
00000000000032f0 S __ZNSt3__114__split_bufferIN4CLD211ResultChunkERNS_9allocatorIS2_EEEC2EmmS5_
00000000000032a0 S __ZNSt3__114__split_bufferIN4CLD211ResultChunkERNS_9allocatorIS2_EEED1Ev
0000000000003390 S __ZNSt3__114__split_bufferIN4CLD211ResultChunkERNS_9allocatorIS2_EEED2Ev
00000000000031a0 S __ZNSt3__16vectorIN4CLD211ResultChunkENS_9allocatorIS2_EEE18__construct_at_endEm
00000000000032c0 S __ZNSt3__16vectorIN4CLD211ResultChunkENS_9allocatorIS2_EEE24__RAII_IncreaseAnnotator6__doneEv
00000000000032b0 S __ZNSt3__16vectorIN4CLD211ResultChunkENS_9allocatorIS2_EEE24__RAII_IncreaseAnnotatorC1ERKS5_m
00000000000032d0 S __ZNSt3__16vectorIN4CLD211ResultChunkENS_9allocatorIS2_EEE24__RAII_IncreaseAnnotatorC2ERKS5_m
0000000000003210 S __ZNSt3__16vectorIN4CLD211ResultChunkENS_9allocatorIS2_EEE26__swap_out_circular_bufferERNS_14__split_bufferIS2_RS4_EE
0000000000002e80 S __ZNSt3__16vectorIN4CLD211ResultChunkENS_9allocatorIS2_EEE6resizeEm
00000000000030a0 S __ZNSt3__16vectorIN4CLD211ResultChunkENS_9allocatorIS2_EEE8__appendEm
0000000000003500 S __ZNSt3__16vectorIiNS_9allocatorIiEEE24__RAII_IncreaseAnnotator6__doneEv
00000000000034f0 S __ZNSt3__16vectorIiNS_9allocatorIiEEE24__RAII_IncreaseAnnotatorC1ERKS3_m
0000000000003510 S __ZNSt3__16vectorIiNS_9allocatorIiEEE24__RAII_IncreaseAnnotatorC2ERKS3_m
0000000000003480 S __ZNSt3__16vectorIiNS_9allocatorIiEEE8allocateEm
0000000000002f50 S __ZNSt3__16vectorIiNS_9allocatorIiEEEC1EmRKi
00000000000033f0 S __ZNSt3__16vectorIiNS_9allocatorIiEEEC2EmRKi
0000000000002f60 S __ZNSt3__16vectorIiNS_9allocatorIiEEED1Ev
0000000000003040 S __ZNSt3__16vectorIiNS_9allocatorIiEEED2Ev
                 U __ZSt9terminatev
                 U __ZdaPv
                 U __ZdlPv
                 U __Znam
                 U __Znwm
                 U ___bzero
0000000000003090 S ___clang_call_terminate
                 U ___cxa_begin_catch
                 U ___gxx_personality_v0
                 U ___stack_chk_fail
                 U ___stack_chk_guard
                 U ___stderrp
                 U _fprintf
                 U _fputs
                 U _fwrite
                 U _memcpy
                 U _memmove
                 U _memset
                 U _sprintf
0000000000003d34 s l__ZZN4CLD215CalcSummaryLangEPNS_7DocToteEiPKiPKNS_8LanguageES3_PS4_PbbbiE11active_slot

/usr/local/lib/libqcld2.a(debug.o):
0000000000001a6c s GCC_except_table0
0000000000001a8c s GCC_except_table1
0000000000001bec s GCC_except_table10
0000000000001c0c s GCC_except_table11
0000000000001c2c s GCC_except_table12
0000000000001c74 s GCC_except_table15
0000000000001cb0 s GCC_except_table16
0000000000001d18 s GCC_except_table19
0000000000001aac s GCC_except_table2
0000000000001acc s GCC_except_table3
0000000000001aec s GCC_except_table4
0000000000001b0c s GCC_except_table5
0000000000001b2c s GCC_except_table6
0000000000001b8c s GCC_except_table9
                 U __Unwind_Resume
0000000000000e70 T __ZN4CLD210CLD2_DebugEPKciibbPKNS_16ScoringHitBufferEPKNS_14ScoringContextEPKNS_9ChunkSpanEPKNS_12ChunkSummaryE
00000000000002e0 T __ZN4CLD210GetOcta2AtEPKc
0000000000001680 T __ZN4CLD211CLD2_Debug2EPKcbbPKNS_16ScoringHitBufferEPKNS_14ScoringContextEPKNS_13SummaryBufferE
0000000000000710 T __ZN4CLD211GetScoreTxtEPKNS_14ScoringContextEPKNS_16CLD2TableSummaryEi
                 U __ZN4CLD212LanguageCodeENS_8LanguageE
                 U __ZN4CLD212ULScriptCodeENS_8ULScriptE
00000000000004e0 T __ZN4CLD214GetLangProbTxtEPKNS_14ScoringContextEj
0000000000001d60 S __ZN4CLD215LgProb2TblEntryEi
0000000000000a00 T __ZN4CLD218GetHtmlEscapedTextERKNSt3__112basic_stringIcNS0_11char_traitsIcEENS0_9allocatorIcEEEE
                 U __ZN4CLD219FromPerScriptNumberENS_8ULScriptEh
00000000000008d0 T __ZN4CLD219GetPlainEscapedTextERKNSt3__112basic_stringIcNS0_11char_traitsIcEENS0_9allocatorIcEEEE
0000000000001870 T __ZN4CLD221DumpResultChunkVectorEP7__sFILEPKcPNSt3__16vectorINS_11ResultChunkENS4_9allocatorIS6_EEEE
0000000000000bd0 T __ZN4CLD223GetColorHtmlEscapedTextENS_8LanguageERKNSt3__112basic_stringIcNS1_11char_traitsIcEENS1_9allocatorIcEEEE
0000000000000d60 T __ZN4CLD227GetLangColorHtmlEscapedTextENS_8LanguageERKNSt3__112basic_stringIcNS1_11char_traitsIcEENS1_9allocatorIcEEEE
                 U __ZN4CLD25BiLenEPKc
00000000000003f0 T __ZN4CLD25FmtLPENS_8ULScriptEhh
                 U __ZN4CLD26UniLenEPKc
00000000000000a0 T __ZN4CLD27GetBiAtEPKc
0000000000001d80 S __ZN4CLD27LgProb3EPKhi
                 U __ZN4CLD27OctaLenEPKc
                 U __ZN4CLD27QuadLenEPKc
0000000000000000 T __ZN4CLD28GetUniAtEPKc
0000000000000210 T __ZN4CLD29GetOctaAtEPKc
0000000000000140 T __ZN4CLD29GetQuadAtEPKc
0000000000002730 s __ZN4CLD2L10kLangColorE
0000000000000cf0 t __ZN4CLD2L12GetBackColorENS_8LanguageEb
0000000000000d30 t __ZN4CLD2L12GetTextColorENS_8LanguageEb
0000000000001f70 s __ZN4CLD2L12kLgProbV2TblE
00000000000026f0 s __ZN4CLD2L15kLangBackgroundE
0000000000001670 t __ZN4CLD2L6minintEii
0000000000001da0 S __ZNSt3__111char_traitsIcE6assignERcRKc
0000000000001db0 S __ZNSt3__111char_traitsIcE6lengthEPKc
                 U __ZNSt3__112basic_stringIcNS_11char_traitsIcEENS_9allocatorIcEEE6__initEPKcm
                 U __ZNSt3__112basic_stringIcNS_11char_traitsIcEENS_9allocatorIcEEE6appendEPKc
                 U __ZNSt3__112basic_stringIcNS_11char_traitsIcEENS_9allocatorIcEEE6appendEPKcm
                 U __ZNSt3__112basic_stringIcNS_11char_traitsIcEENS_9allocatorIcEEE6appendEmc
                 U __ZNSt3__112basic_stringIcNS_11char_traitsIcEENS_9allocatorIcEEE7reserveEm
                 U __ZNSt3__112basic_stringIcNS_11char_traitsIcEENS_9allocatorIcEEEC1ERKS5_mmRKS4_
                 U __ZNSt3__112basic_stringIcNS_11char_traitsIcEENS_9allocatorIcEEED1Ev
                 U __ZSt9terminatev
0000000000001d90 S ___clang_call_terminate
                 U ___cxa_begin_catch
                 U ___gxx_personality_v0
                 U ___stack_chk_fail
                 U ___stack_chk_guard
                 U _fprintf
                 U _fputs
                 U _fwrite
                 U _sprintf
                 U _strlen

/usr/local/lib/libqcld2.a(fixunicodevalue.o):
0000000000000000 T __ZN4CLD215FixUnicodeValueEi
0000000000000070 s __ZN4CLD2L28kMapFullMicrosoft1252OrSpaceE

/usr/local/lib/libqcld2.a(generated_entities.o):
00000000000005e0 S __ZN4CLD213kNameToEntityE
0000000000000000 S __ZN4CLD217kNameToEntitySizeE

/usr/local/lib/libqcld2.a(generated_language.o):
0000000000008560 S __ZN4CLD215kCodeToLanguageE
0000000000004c00 S __ZN4CLD215kLanguageToCodeE
00000000000038d0 S __ZN4CLD215kLanguageToNameE
0000000000007260 S __ZN4CLD215kNameToLanguageE
0000000000005f30 S __ZN4CLD216kLanguageToCNameE
0000000000001350 S __ZN4CLD216kLanguageToPLangE
0000000000000010 S __ZN4CLD218kLanguageToScriptsE
0000000000001b54 S __ZN4CLD219kCodeToLanguageSizeE
0000000000000004 S __ZN4CLD219kLanguageToCodeSizeE
0000000000000000 S __ZN4CLD219kLanguageToNameSizeE
0000000000001b50 S __ZN4CLD219kNameToLanguageSizeE
0000000000000008 S __ZN4CLD220kLanguageToCNameSizeE
0000000000001340 S __ZN4CLD220kLanguageToPLangSizeE
0000000000001950 S __ZN4CLD220kPLangToCloseSetLatnE
0000000000001a50 S __ZN4CLD220kPLangToCloseSetOthrE
0000000000001550 S __ZN4CLD220kPLangToLanguageLatnE
0000000000001750 S __ZN4CLD220kPLangToLanguageOthrE
000000000000000c S __ZN4CLD222kLanguageToScriptsSizeE

/usr/local/lib/libqcld2.a(generated_ulscript.o):
0000000000002020 S __ZN4CLD215kCodeToULScriptE
0000000000001990 S __ZN4CLD215kNameToULScriptE
0000000000001330 S __ZN4CLD215kULScriptToCodeE
0000000000001000 S __ZN4CLD215kULScriptToNameE
0000000000001660 S __ZN4CLD216kULScriptToCNameE
0000000000000010 S __ZN4CLD216kULScriptToRtypeE
000000000000034c S __ZN4CLD219kCodeToULScriptSizeE
0000000000000348 S __ZN4CLD219kNameToULScriptSizeE
0000000000000004 S __ZN4CLD219kULScriptToCodeSizeE
0000000000000000 S __ZN4CLD219kULScriptToNameSizeE
0000000000000008 S __ZN4CLD220kULScriptToCNameSizeE
000000000000000c S __ZN4CLD220kULScriptToRtypeSizeE
00000000000001b0 S __ZN4CLD222kULScriptToDefaultLangE
00000000000001a8 S __ZN4CLD226kULScriptToDefaultLangSizeE

/usr/local/lib/libqcld2.a(getonescriptspan.o):
000000000000168c s GCC_except_table14
00000000000016c8 s GCC_except_table16
                 U __Unwind_Resume
00000000000015c0 S __ZN11StringPieceC1EPKci
0000000000001680 S __ZN11StringPieceC2EPKci
0000000000000380 T __ZN4CLD210ReadEntityEPKciPi
0000000000000150 T __ZN4CLD210runetocharEPcPKi
                 U __ZN4CLD212BinarySearchEPKciiPKNS_11CharIntPairE
0000000000000000 T __ZN4CLD212DisplayPieceEPKci
0000000000000210 T __ZN4CLD212LookupEntityEPKci
0000000000000af0 T __ZN4CLD213ScriptScanner14GetOneTextSpanEPNS_8LangSpanE
00000000000014a0 T __ZN4CLD213ScriptScanner15LowerScriptSpanEPNS_8LangSpanE
0000000000000ec0 T __ZN4CLD213ScriptScanner16GetOneScriptSpanEPNS_8LangSpanE
0000000000000980 T __ZN4CLD213ScriptScanner17SkipToFrontOfSpanEPKciPi
0000000000001550 T __ZN4CLD213ScriptScanner21GetOneScriptSpanLowerEPNS_8LangSpanE
0000000000001590 T __ZN4CLD213ScriptScanner7MapBackEi
0000000000000850 T __ZN4CLD213ScriptScannerC1EPKcib
0000000000000910 T __ZN4CLD213ScriptScannerC1EPKcibbb
00000000000007b0 T __ZN4CLD213ScriptScannerC2EPKcib
0000000000000860 T __ZN4CLD213ScriptScannerC2EPKcibbb
0000000000000970 T __ZN4CLD213ScriptScannerD1Ev
0000000000000930 T __ZN4CLD213ScriptScannerD2Ev
0000000000000300 T __ZN4CLD213ascii_isalnumEc
00000000000002a0 T __ZN4CLD213ascii_isdigitEc
                 U __ZN4CLD213kNameToEntityE
0000000000000690 T __ZN4CLD214EntityToBufferEPKciPcPiS3_
0000000000001600 S __ZN4CLD214UTF8OneCharLenEPKc
00000000000002c0 T __ZN4CLD214ascii_isxdigitEc
                 U __ZN4CLD215FixUnicodeValueEi
                 U __ZN4CLD215UTF8GenericScanEPKNS_19UTF8StateMachineObjERK11StringPiecePi
0000000000001670 S __ZN4CLD216UNALIGNED_LOAD32EPKv
0000000000000340 T __ZN4CLD216hex_digit_to_intEc
0000000000001660 S __ZN4CLD217UNALIGNED_STORE32EPvj
                 U __ZN4CLD217kNameToEntitySizeE
                 U __ZN4CLD218UTF8GenericReplaceEPKNS_19UTF8StateMachineObjERK11StringPieceRS3_bPiS7_S7_PNS_9OffsetMapE
0000000000000720 T __ZN4CLD220ScanToPossibleLetterEPKcii
00000000000006e0 T __ZN4CLD221ScanToLetterOrSpecialEPKci
0000000000000ab0 T __ZN4CLD222GetUTF8LetterScriptNumEPKc
                 U __ZN4CLD226UTF8GenericPropertyTwoByteEPKNS_21UTF8StateMachineObj_2EPPKhPi
0000000000001640 S __ZN4CLD22WSEc
0000000000001620 S __ZN4CLD26EqCaseEcc
00000000000015d0 S __ZN4CLD29IsSpecialEc
0000000000001630 S __ZN4CLD29NeqLetterEc
                 U __ZN4CLD29OffsetMap4CopyEi
                 U __ZN4CLD29OffsetMap5ClearEv
                 U __ZN4CLD29OffsetMap5ResetEv
                 U __ZN4CLD29OffsetMap6DeleteEi
                 U __ZN4CLD29OffsetMap6InsertEi
                 U __ZN4CLD29OffsetMap7MapBackEi
                 U __ZN4CLD29OffsetMapC1Ev
                 U __ZN4CLD29OffsetMapD1Ev
0000000000001a40 s __ZN4CLD2L10kCharToSubE
0000000000005490 s __ZN4CLD2L11kUTF8LenTblE
000000000000fdf0 b __ZN4CLD2L13gDisplayPieceE
0000000000005390 s __ZN4CLD2L14kSpecialSymbolE
0000000000001720 s __ZN4CLD2L14kTagParseTbl_0E
00000000000005a0 t __ZN4CLD2L14strto32_base10EPKcS1_PS1_
00000000000004c0 t __ZN4CLD2L14strto32_base16EPKcS1_PS1_
0000000000005590 s __ZN4CLD2L24utf8repl_lettermarklowerE
00000000000073a0 s __ZN4CLD2L28utf8prop_lettermarkscriptnumE
000000000000f310 s __ZN4CLD2L28utf8repl_lettermarklower_objE
00000000000072a0 s __ZN4CLD2L29utf8repl_lettermarklower_fastE
0000000000001b40 s __ZN4CLD2L29utf8scannot_lettermarkspecialE
000000000000f350 s __ZN4CLD2L32utf8prop_lettermarkscriptnum_objE
000000000000f2d0 s __ZN4CLD2L33utf8scannot_lettermarkspecial_objE
0000000000005290 s __ZN4CLD2L34utf8scannot_lettermarkspecial_fastE
0000000000007150 s __ZN4CLD2L35utf8repl_lettermarklower_remap_baseE
0000000000007210 s __ZN4CLD2L37utf8repl_lettermarklower_remap_stringE
000000000000f2a0 s __ZN4CLD2L39utf8prop_lettermarkscriptnum_remap_baseE
0000000000005280 s __ZN4CLD2L40utf8scannot_lettermarkspecial_remap_baseE
000000000000f2a4 s __ZN4CLD2L41utf8prop_lettermarkscriptnum_remap_stringE
0000000000005284 s __ZN4CLD2L42utf8scannot_lettermarkspecial_remap_stringE
0000000000001710 s __ZN4CLD2L8gCharlenE
                 U __ZdaPv
                 U __Znam
                 U ___gxx_personality_v0
                 U ___stack_chk_fail
                 U ___stack_chk_guard
                 U _memcmp
                 U _memcpy

/usr/local/lib/libqcld2.a(lang_script.o):
0000000000000460 T __ZN4CLD212BinarySearchEPKciiPKNS_11CharIntPairE
00000000000000f0 T __ZN4CLD212LanguageCodeENS_8LanguageE
00000000000000c0 T __ZN4CLD212LanguageNameENS_8LanguageE
0000000000000030 T __ZN4CLD212ULScriptCodeENS_8ULScriptE
0000000000000000 T __ZN4CLD212ULScriptNameENS_8ULScriptE
0000000000000c60 S __ZN4CLD213kCloseSetSizeE
00000000000003e0 T __ZN4CLD214IsLatnLanguageENS_8LanguageE
0000000000000420 T __ZN4CLD214IsOthrLanguageENS_8LanguageE
0000000000000330 T __ZN4CLD215DefaultLanguageENS_8ULScriptE
00000000000001a0 T __ZN4CLD215ExtLanguageCodeENS_8LanguageE
0000000000000190 T __ZN4CLD215ExtLanguageNameENS_8LanguageE
0000000000000350 T __ZN4CLD215PerScriptNumberENS_8ULScriptENS_8LanguageE
                 U __ZN4CLD215kCodeToLanguageE
                 U __ZN4CLD215kCodeToULScriptE
                 U __ZN4CLD215kLanguageToCodeE
                 U __ZN4CLD215kLanguageToNameE
                 U __ZN4CLD215kNameToLanguageE
                 U __ZN4CLD215kNameToULScriptE
                 U __ZN4CLD215kULScriptToCodeE
                 U __ZN4CLD215kULScriptToNameE
00000000000001c0 T __ZN4CLD216LanguageCloseSetENS_8LanguageE
                 U __ZN4CLD216kLanguageToCNameE
                 U __ZN4CLD216kLanguageToPLangE
                 U __ZN4CLD216kULScriptToCNameE
                 U __ZN4CLD216kULScriptToRtypeE
                 U __ZN4CLD218kLanguageToScriptsE
0000000000000390 T __ZN4CLD219FromPerScriptNumberENS_8ULScriptEh
00000000000004e0 T __ZN4CLD219GetLanguageFromNameEPKc
00000000000007e0 T __ZN4CLD219GetULScriptFromNameEPKc
                 U __ZN4CLD219kCodeToLanguageSizeE
                 U __ZN4CLD219kCodeToULScriptSizeE
                 U __ZN4CLD219kNameToLanguageSizeE
                 U __ZN4CLD219kNameToULScriptSizeE
0000000000000120 T __ZN4CLD220LanguageDeclaredNameENS_8LanguageE
0000000000000060 T __ZN4CLD220ULScriptDeclaredNameENS_8ULScriptE
                 U __ZN4CLD220kLanguageToPLangSizeE
                 U __ZN4CLD220kPLangToLanguageLatnE
                 U __ZN4CLD220kPLangToLanguageOthrE
                 U __ZN4CLD222kULScriptToDefaultLangE
00000000000001b0 T __ZN4CLD223ExtLanguageDeclaredNameENS_8LanguageE
0000000000000090 T __ZN4CLD223ULScriptRecognitionTypeENS_8ULScriptE
0000000000000150 T __ZN4CLD224LanguageRecognizedScriptENS_8LanguageEi
0000000000000c30 T __ZN4CLD28LScript4ENS_8ULScriptE
00000000000004d0 T __ZN4CLD28MakeLangEi
00000000000007d0 T __ZN4CLD29MakeULScrEi
                 U ___stack_chk_fail
                 U ___stack_chk_guard
                 U _memcpy
                 U _strchr
                 U _strcmp
                 U _strlen
0000000000000c70 s l_switch.table

/usr/local/lib/libqcld2.a(offsetmap.o):
0000000000000590 T __ZN4CLD29OffsetMap10DumpStringEv
00000000000007c0 T __ZN4CLD29OffsetMap10DumpWindowEv
0000000000000cb0 T __ZN4CLD29OffsetMap10MapForwardEi
0000000000000dd0 T __ZN4CLD29OffsetMap11CopyDeletesEPS0_S1_
0000000000000d40 T __ZN4CLD29OffsetMap11CopyInsertsEPS0_S1_
0000000000000410 T __ZN4CLD29OffsetMap13MaybeFlushAllEv
00000000000009a0 T __ZN4CLD29OffsetMap13ParsePreviousEiPNS0_5MapOpEPi
00000000000009e0 T __ZN4CLD29OffsetMap13PrintPositionEPKc
0000000000000e60 T __ZN4CLD29OffsetMap16ComposeOffsetMapEPS0_S1_S1_
0000000000000440 T __ZN4CLD29OffsetMap4CopyEi
0000000000000540 T __ZN4CLD29OffsetMap4EmitENS0_5MapOpEi
0000000000000030 T __ZN4CLD29OffsetMap5ClearEv
00000000000002b0 T __ZN4CLD29OffsetMap5FlushEv
00000000000003e0 T __ZN4CLD29OffsetMap5ResetEv
0000000000000890 T __ZN4CLD29OffsetMap6BackupEi
00000000000004e0 T __ZN4CLD29OffsetMap6DeleteEi
0000000000000480 T __ZN4CLD29OffsetMap6InsertEi
0000000000000c20 T __ZN4CLD29OffsetMap7MapBackEi
0000000000000840 T __ZN4CLD29OffsetMap7SetLeftEv
0000000000000f60 T __ZN4CLD29OffsetMap7StuffItERKNSt3__112basic_stringIcNS1_11char_traitsIcEENS1_9allocatorIcEEEEii
0000000000000560 T __ZN4CLD29OffsetMap8FlushAllEv
0000000000000b70 T __ZN4CLD29OffsetMap8MoveLeftEv
00000000000000e0 T __ZN4CLD29OffsetMap8PrintmapEPKc
0000000000000860 T __ZN4CLD29OffsetMap8SetRightEv
0000000000000ac0 T __ZN4CLD29OffsetMap9MoveRightEv
00000000000008f0 T __ZN4CLD29OffsetMap9ParseNextEiPNS0_5MapOpEPi
00000000000000b0 T __ZN4CLD29OffsetMapC1Ev
0000000000000000 T __ZN4CLD29OffsetMapC2Ev
00000000000000d0 T __ZN4CLD29OffsetMapD1Ev
00000000000000c0 T __ZN4CLD29OffsetMapD2Ev
00000000000003c0 t __ZN4CLD2L6OpPartEc
00000000000003d0 t __ZN4CLD2L7LenPartEc
0000000000000fb0 S __ZNSt3__111char_traitsIcE6assignERcRKc
                 U __ZNSt3__112basic_stringIcNS_11char_traitsIcEENS_9allocatorIcEEE9push_backEc
                 U __ZNSt3__112basic_stringIcNS_11char_traitsIcEENS_9allocatorIcEEED1Ev
                 U __ZNSt3__112basic_stringIcNS_11char_traitsIcEENS_9allocatorIcEEEaSERKS5_
                 U __ZSt9terminatev
0000000000000fa0 S ___clang_call_terminate
                 U ___cxa_begin_catch
                 U ___stderrp
                 U ___stdoutp
                 U _fclose
                 U _fopen
                 U _fprintf
                 U _fputc
                 U _fwrite
                 U _strcmp

/usr/local/lib/libqcld2.a(tote.o):
                 U __ZN4CLD212LanguageCodeENS_8LanguageE
0000000000000070 T __ZN4CLD24Tote13AddScoreCountEv
0000000000000080 T __ZN4CLD24Tote3AddEhi
0000000000000050 T __ZN4CLD24Tote6ReinitEv
0000000000000020 T __ZN4CLD24ToteC1Ev
0000000000000000 T __ZN4CLD24ToteC2Ev
0000000000000040 T __ZN4CLD24ToteD1Ev
0000000000000030 T __ZN4CLD24ToteD2Ev
0000000000000480 T __ZN4CLD27DocTote13CurrentTopKeyEv
00000000000002e0 T __ZN4CLD27DocTote3AddEtiii
00000000000005e0 T __ZN4CLD27DocTote4DumpEP7__sFILE
0000000000000410 T __ZN4CLD27DocTote4FindEt
00000000000004d0 T __ZN4CLD27DocTote4SortEi
0000000000000250 T __ZN4CLD27DocTote6ReinitEv
0000000000000220 T __ZN4CLD27DocToteC1Ev
0000000000000190 T __ZN4CLD27DocToteC2Ev
0000000000000240 T __ZN4CLD27DocToteD1Ev
0000000000000230 T __ZN4CLD27DocToteD2Ev
00000000000000c0 T __ZNK4CLD24Tote19CurrentTopThreeKeysEPi
                 U ___stack_chk_fail
                 U ___stack_chk_guard
                 U _fprintf
                 U _fwrite
0000000000000690 s l__ZZNK4CLD24Tote19CurrentTopThreeKeysEPiE6score3

/usr/local/lib/libqcld2.a(utf8statetable.o):
0000000000001ca0 S __ZN11StringPiece13remove_prefixEi
0000000000001cd0 S __ZN11StringPiece13remove_suffixEi
0000000000001c90 S __ZN11StringPieceC1EPKci
0000000000001ce0 S __ZN11StringPieceC2EPKci
0000000000001cb0 S __ZN4CLD214UTF8OneCharLenEPKc
0000000000000540 T __ZN4CLD215UTF8GenericScanEPKNS_19UTF8StateMachineObjERK11StringPiecePi
0000000000001b50 T __ZN4CLD215UTF8TrimToCharsEP11StringPiece
0000000000001c80 S __ZN4CLD216UNALIGNED_LOAD32EPKv
00000000000011e0 T __ZN4CLD218UTF8GenericReplaceEPKNS_19UTF8StateMachineObjERK11StringPieceRS3_PiS7_S7_
00000000000011b0 T __ZN4CLD218UTF8GenericReplaceEPKNS_19UTF8StateMachineObjERK11StringPieceRS3_bPiS7_S7_
00000000000008d0 T __ZN4CLD218UTF8GenericReplaceEPKNS_19UTF8StateMachineObjERK11StringPieceRS3_bPiS7_S7_PNS_9OffsetMapE
0000000000000000 T __ZN4CLD219UTF8GenericPropertyEPKNS_19UTF8StateMachineObjEPPKhPi
0000000000000110 T __ZN4CLD222UTF8HasGenericPropertyERKNS_19UTF8StateMachineObjEPKc
00000000000007d0 T __ZN4CLD224UTF8GenericScanFastAsciiEPKNS_19UTF8StateMachineObjERK11StringPiecePi
0000000000001b20 T __ZN4CLD225UTF8GenericReplaceTwoByteEPKNS_21UTF8StateMachineObj_2ERK11StringPieceRS3_PiS7_S7_
0000000000001af0 T __ZN4CLD225UTF8GenericReplaceTwoByteEPKNS_21UTF8StateMachineObj_2ERK11StringPieceRS3_bPiS7_S7_
0000000000001210 T __ZN4CLD225UTF8GenericReplaceTwoByteEPKNS_21UTF8StateMachineObj_2ERK11StringPieceRS3_bPiS7_S7_PNS_9OffsetMapE
0000000000000390 T __ZN4CLD226UTF8GenericPropertyTwoByteEPKNS_21UTF8StateMachineObj_2EPPKhPi
00000000000001a0 T __ZN4CLD229UTF8GenericPropertyBigOneByteEPKNS_19UTF8StateMachineObjEPPKhPi
00000000000004b0 T __ZN4CLD229UTF8HasGenericPropertyTwoByteERKNS_21UTF8StateMachineObj_2EPKc
00000000000002d0 T __ZN4CLD232UTF8HasGenericPropertyBigOneByteERKNS_19UTF8StateMachineObjEPKc
                 U __ZN4CLD29OffsetMap4CopyEi
                 U __ZN4CLD29OffsetMap6DeleteEi
                 U __ZN4CLD29OffsetMap6InsertEi
00000000000007b0 t __ZN4CLD2L11InStateZeroEPKNS_19UTF8StateMachineObjEPKh
0000000000001cf0 s __ZN4CLD2L11kUTF8LenTblE
0000000000001c40 t __ZN4CLD2L13InStateZero_2EPKNS_21UTF8StateMachineObj_2EPKt
00000000000009e0 t __ZN4CLD2L26UTF8GenericReplaceInternalEPKNS_19UTF8StateMachineObjERK11StringPieceRS3_bPiS7_S7_PNS_9OffsetMapE
0000000000001330 t __ZN4CLD2L33UTF8GenericReplaceInternalTwoByteEPKNS_21UTF8StateMachineObj_2ERK11StringPieceRS3_bPiS7_S7_PNS_9OffsetMapE
0000000000001c60 S __ZNK11StringPiece4dataEv
0000000000001c70 S __ZNK11StringPiece6lengthEv
                 U _memcpy

/usr/local/lib/libqcld2.a(cld_generated_cjk_uni_prop_80.o):
00000000000124c8 S __ZN4CLD224cld_generated_CjkUni_objE
0000000000000000 s __ZN4CLD2L20cld_generated_CjkUniE
00000000000124c0 s __ZN4CLD2L31cld_generated_CjkUni_remap_baseE
00000000000124c4 s __ZN4CLD2L33cld_generated_CjkUni_remap_stringE

/usr/local/lib/libqcld2.a(cld2_generated_cjk_compatible.o):
0000000000000798 S __ZN4CLD214kCjkCompat_objE
0000000000000000 S __ZN4CLD219kCompatTableIndSizeE
0000000000000010 s __ZN4CLD2L12kCompatTableE
0000000000000020 s __ZN4CLD2L15kCompatTableIndE

/usr/local/lib/libqcld2.a(cld_generated_cjk_delta_bi_4.o):
0000000000004098 S __ZN4CLD215kCjkDeltaBi_objE
0000000000000000 S __ZN4CLD218kCjkDeltaBiIndSizeE
0000000000000010 s __ZN4CLD2L11kCjkDeltaBiE
0000000000004010 s __ZN4CLD2L14kCjkDeltaBiIndE

/usr/local/lib/libqcld2.a(generated_distinct_bi_0.o):
0000000000000028 S __ZN4CLD220kDistinctBiTable_objE
0000000000000000 S __ZN4CLD223kDistinctBiTableIndSizeE
0000000000000010 s __ZN4CLD2L16kDistinctBiTableE
0000000000000020 s __ZN4CLD2L19kDistinctBiTableIndE

/usr/local/lib/libqcld2.a(cld2_generated_quadchrome_2.o):
000000000013a470 S __ZN4CLD210kQuad_obj2E
0000000000000000 S __ZN4CLD218kQuadChromeIndSizeE
000000000013a420 S __ZN4CLD219kQuadChrome2IndSizeE
000000000013a448 S __ZN4CLD29kQuad_objE
0000000000000010 s __ZN4CLD2L17kQuadChrome1015_2E
000000000013a430 s __ZN4CLD2L19kQuadChrome1015_2_2E
0000000000100010 s __ZN4CLD2L20kQuadChrome1015_2IndE
000000000013a440 s __ZN4CLD2L22kQuadChrome1015_2_2IndE

/usr/local/lib/libqcld2.a(cld2_generated_deltaoctachrome.o):
0000000000010fa8 S __ZN4CLD214kDeltaOcta_objE
0000000000010fd0 S __ZN4CLD215kDeltaOcta_obj2E
0000000000000000 S __ZN4CLD217kDeltaOctaIndSizeE
0000000000010f80 S __ZN4CLD218kDeltaOcta2IndSizeE
0000000000000010 s __ZN4CLD2L20kDeltaOctaChrome1015E
0000000000010f90 s __ZN4CLD2L22kDeltaOctaChrome1015_2E
0000000000010010 s __ZN4CLD2L23kDeltaOctaChrome1015IndE
0000000000010fa0 s __ZN4CLD2L25kDeltaOctaChrome1015_2IndE

/usr/local/lib/libqcld2.a(cld2_generated_distinctoctachrome.o):
0000000000008158 S __ZN4CLD217kDistinctOcta_objE
0000000000008180 S __ZN4CLD218kDistinctOcta_obj2E
0000000000000000 S __ZN4CLD220kDistinctOctaIndSizeE
000000000000813c S __ZN4CLD221kDistinctOcta2IndSizeE
0000000000000010 s __ZN4CLD2L23kDistinctOctaChrome1015E
0000000000008140 s __ZN4CLD2L25kDistinctOctaChrome1015_2E
0000000000008010 s __ZN4CLD2L26kDistinctOctaChrome1015IndE
0000000000008150 s __ZN4CLD2L28kDistinctOctaChrome1015_2IndE

/usr/local/lib/libqcld2.a(cld_generated_score_quad_octa_2.o):
0000000000000010 S __ZN4CLD218kAvgDeltaOctaScoreE
0000000000000000 S __ZN4CLD222kAvgDeltaOctaScoreSizeE

/usr/local/lib/libqcld2.a(moc_qlsd2.o):
00000000000000e0 s __ZL18qt_meta_data_QLSD2
00000000000001e8 d __ZL24qt_meta_stringdata_QLSD2
0000000000000080 T __ZN5QLSD211qt_metacallEN11QMetaObject4CallEiPPv
0000000000000040 T __ZN5QLSD211qt_metacastEPKc
0000000000000130 S __ZN5QLSD216staticMetaObjectE
0000000000000000 T __ZN5QLSD218qt_static_metacallEP7QObjectN11QMetaObject4CallEiPPv
00000000000000b0 S __ZN5QLSD2D0Ev
00000000000000a0 S __ZN5QLSD2D1Ev
00000000000000d0 S __ZN5QLSD2D2Ev
                 U __ZN7QObject10childEventEP11QChildEvent
                 U __ZN7QObject10timerEventEP11QTimerEvent
                 U __ZN7QObject11customEventEP6QEvent
                 U __ZN7QObject11eventFilterEPS_P6QEvent
                 U __ZN7QObject11qt_metacallEN11QMetaObject4CallEiPPv
                 U __ZN7QObject11qt_metacastEPKc
                 U __ZN7QObject13connectNotifyERK11QMetaMethod
                 U __ZN7QObject16disconnectNotifyERK11QMetaMethod
                 U __ZN7QObject16staticMetaObjectE
                 U __ZN7QObject5eventEP6QEvent
                 U __ZN7QObjectD2Ev
                 U __ZNK11QObjectData17dynamicMetaObjectEv
0000000000000090 S __ZNK14QScopedPointerI11QObjectData21QScopedPointerDeleterIS0_EEptEv
0000000000000010 T __ZNK5QLSD210metaObjectEv
00000000000001d0 S __ZTI5QLSD2
                 U __ZTI7QObject
000000000000011c S __ZTS5QLSD2
0000000000000160 S __ZTV5QLSD2
                 U __ZTVN10__cxxabiv120__si_class_type_infoE
                 U __ZdlPv
                 U _strcmp
